target datalayout = "e-m:e-p270:32:32-p271:32:32-p272:64:64-i64:64-i128:128-f80:128-n8:16:32:64-S128"
target triple = "x86_64-pc-linux-gnu"

%struct.H5S_t = type { %struct.H5S_extent_t, %struct.H5S_select_t }
%struct.H5S_extent_t = type { %struct.H5O_shared_t, i32, i32, i64, i32, ptr, ptr }
%struct.H5O_shared_t = type { i32, ptr, i32, %union.anon }
%union.anon = type { %struct.H5O_mesg_loc_t }
%struct.H5O_mesg_loc_t = type { i32, i64 }
%struct.H5S_select_t = type { ptr, i8, [32 x i64], i64, %union.anon.0 }
%union.anon.0 = type { ptr }
%struct.H5S_pnt_list_t = type { [32 x i64], [32 x i64], ptr, ptr, i64, ptr }

@H5S_init_g = external global i8, align 1
@H5_libterm_g = external global i8, align 1
@.str = private unnamed_addr constant [102 x i8] c"generated/home/dtcxzyw/WorkSpace/Projects/compilers/llvm-opt-benchmark/bench/hdf5/hdf5/src/H5Spoint.c\00", align 1
@H5E_DATASPACE_g = external global i64, align 8
@H5E_BADRANGE_g = external global i64, align 8
@__func__.H5S__point_bounds = private unnamed_addr constant [18 x i8] c"H5S__point_bounds\00", align 1
@.str.47 = private unnamed_addr constant [37 x i8] c"offset moves selection out of bounds\00", align 1

; Function Attrs: nounwind uwtable
define internal i32 @H5S__point_bounds(ptr noundef %0, ptr noundef %1, ptr noundef %2) #0 {
  %4 = alloca ptr, align 8
  %5 = alloca ptr, align 8
  %6 = alloca ptr, align 8
  %7 = alloca i32, align 4
  %8 = alloca i32, align 4
  %9 = alloca i8, align 1
  store ptr %0, ptr %4, align 8, !tbaa !3
  store ptr %1, ptr %5, align 8, !tbaa !51
  store ptr %2, ptr %6, align 8, !tbaa !51
  call void @llvm.lifetime.start.p0(i64 4, ptr %7) #7
  call void @llvm.lifetime.start.p0(i64 4, ptr %8) #7
  store i32 0, ptr %8, align 4, !tbaa !10
  call void @llvm.lifetime.start.p0(i64 1, ptr %9) #7
  store i8 0, ptr %9, align 1, !tbaa !8
  %10 = load i8, ptr @H5S_init_g, align 1, !tbaa !8, !range !12, !noundef !13
  %11 = trunc i8 %10 to i1
  br i1 %11, label %16, label %12

12:                                               ; preds = %3
  %13 = load i8, ptr @H5_libterm_g, align 1, !tbaa !8, !range !12, !noundef !13
  %14 = trunc i8 %13 to i1
  %15 = xor i1 %14, true
  br label %16

16:                                               ; preds = %12, %3
  %17 = phi i1 [ true, %3 ], [ %15, %12 ]
  %18 = xor i1 %17, true
  %19 = xor i1 %18, true
  %20 = zext i1 %19 to i32
  %21 = sext i32 %20 to i64
  %22 = call i64 @llvm.expect.i64(i64 %21, i64 1)
  %23 = icmp ne i64 %22, 0
  br i1 %23, label %24, label %118

24:                                               ; preds = %16
  store i32 0, ptr %7, align 4, !tbaa !10
  br label %25

25:                                               ; preds = %113, %24
  %26 = load i32, ptr %7, align 4, !tbaa !10
  %27 = load ptr, ptr %4, align 8, !tbaa !3
  %28 = getelementptr inbounds nuw %struct.H5S_t, ptr %27, i32 0, i32 0
  %29 = getelementptr inbounds nuw %struct.H5S_extent_t, ptr %28, i32 0, i32 4
  %30 = load i32, ptr %29, align 8, !tbaa !15
  %31 = icmp ult i32 %26, %30
  br i1 %31, label %32, label %116

32:                                               ; preds = %25
  %33 = load ptr, ptr %4, align 8, !tbaa !3
  %34 = getelementptr inbounds nuw %struct.H5S_t, ptr %33, i32 0, i32 1
  %35 = getelementptr inbounds nuw %struct.H5S_select_t, ptr %34, i32 0, i32 4
  %36 = load ptr, ptr %35, align 8, !tbaa !14
  %37 = getelementptr inbounds nuw %struct.H5S_pnt_list_t, ptr %36, i32 0, i32 0
  %38 = load i32, ptr %7, align 4, !tbaa !10
  %39 = zext i32 %38 to i64
  %40 = getelementptr inbounds nuw [32 x i64], ptr %37, i64 0, i64 %39
  %41 = load i64, ptr %40, align 8, !tbaa !23
  %42 = load ptr, ptr %4, align 8, !tbaa !3
  %43 = getelementptr inbounds nuw %struct.H5S_t, ptr %42, i32 0, i32 1
  %44 = getelementptr inbounds nuw %struct.H5S_select_t, ptr %43, i32 0, i32 2
  %45 = load i32, ptr %7, align 4, !tbaa !10
  %46 = zext i32 %45 to i64
  %47 = getelementptr inbounds nuw [32 x i64], ptr %44, i64 0, i64 %46
  %48 = load i64, ptr %47, align 8, !tbaa !23
  %49 = add nsw i64 %41, %48
  %50 = icmp slt i64 %49, 0
  br i1 %50, label %51, label %70

51:                                               ; preds = %32
  br label %52

52:                                               ; preds = %51
  br label %53

53:                                               ; preds = %52
  br label %54

54:                                               ; preds = %53
  %55 = load i64, ptr @H5E_DATASPACE_g, align 8, !tbaa !23
  %56 = load i64, ptr @H5E_BADRANGE_g, align 8, !tbaa !23
  %57 = call i32 (ptr, ptr, i32, i64, i64, ptr, ...) @H5E_printf_stack(ptr noundef @.str, ptr noundef @__func__.H5S__point_bounds, i32 noundef 1710, i64 noundef %55, i64 noundef %56, ptr noundef @.str.47)
  br label %58

58:                                               ; preds = %54
  br label %59

59:                                               ; preds = %58
  store i8 1, ptr %9, align 1, !tbaa !8
  %60 = load i8, ptr %9, align 1, !tbaa !8, !range !12, !noundef !13
  %61 = trunc i8 %60 to i1
  %62 = zext i1 %61 to i8
  store i8 %62, ptr %9, align 1, !tbaa !8
  br label %63

63:                                               ; preds = %59
  br label %64

64:                                               ; preds = %63
  br label %65

65:                                               ; preds = %64
  store i32 -1, ptr %8, align 4, !tbaa !10
  br label %117

66:                                               ; No predecessors!
  br label %67

67:                                               ; preds = %66
  br label %68

68:                                               ; preds = %67
  br label %69

69:                                               ; preds = %68
  br label %70

70:                                               ; preds = %69, %32
  %71 = load ptr, ptr %4, align 8, !tbaa !3
  %72 = getelementptr inbounds nuw %struct.H5S_t, ptr %71, i32 0, i32 1
  %73 = getelementptr inbounds nuw %struct.H5S_select_t, ptr %72, i32 0, i32 4
  %74 = load ptr, ptr %73, align 8, !tbaa !14
  %75 = getelementptr inbounds nuw %struct.H5S_pnt_list_t, ptr %74, i32 0, i32 0
  %76 = load i32, ptr %7, align 4, !tbaa !10
  %77 = zext i32 %76 to i64
  %78 = getelementptr inbounds nuw [32 x i64], ptr %75, i64 0, i64 %77
  %79 = load i64, ptr %78, align 8, !tbaa !23
  %80 = load ptr, ptr %4, align 8, !tbaa !3
  %81 = getelementptr inbounds nuw %struct.H5S_t, ptr %80, i32 0, i32 1
  %82 = getelementptr inbounds nuw %struct.H5S_select_t, ptr %81, i32 0, i32 2
  %83 = load i32, ptr %7, align 4, !tbaa !10
  %84 = zext i32 %83 to i64
  %85 = getelementptr inbounds nuw [32 x i64], ptr %82, i64 0, i64 %84
  %86 = load i64, ptr %85, align 8, !tbaa !23
  %87 = add nsw i64 %79, %86
  %88 = load ptr, ptr %5, align 8, !tbaa !51
  %89 = load i32, ptr %7, align 4, !tbaa !10
  %90 = zext i32 %89 to i64
  %91 = getelementptr inbounds nuw i64, ptr %88, i64 %90
  store i64 %87, ptr %91, align 8, !tbaa !23
  %92 = load ptr, ptr %4, align 8, !tbaa !3
  %93 = getelementptr inbounds nuw %struct.H5S_t, ptr %92, i32 0, i32 1
  %94 = getelementptr inbounds nuw %struct.H5S_select_t, ptr %93, i32 0, i32 4
  %95 = load ptr, ptr %94, align 8, !tbaa !14
  %96 = getelementptr inbounds nuw %struct.H5S_pnt_list_t, ptr %95, i32 0, i32 1
  %97 = load i32, ptr %7, align 4, !tbaa !10
  %98 = zext i32 %97 to i64
  %99 = getelementptr inbounds nuw [32 x i64], ptr %96, i64 0, i64 %98
  %100 = load i64, ptr %99, align 8, !tbaa !23
  %101 = load ptr, ptr %4, align 8, !tbaa !3
  %102 = getelementptr inbounds nuw %struct.H5S_t, ptr %101, i32 0, i32 1
  %103 = getelementptr inbounds nuw %struct.H5S_select_t, ptr %102, i32 0, i32 2
  %104 = load i32, ptr %7, align 4, !tbaa !10
  %105 = zext i32 %104 to i64
  %106 = getelementptr inbounds nuw [32 x i64], ptr %103, i64 0, i64 %105
  %107 = load i64, ptr %106, align 8, !tbaa !23
  %108 = add nsw i64 %100, %107
  %109 = load ptr, ptr %6, align 8, !tbaa !51
  %110 = load i32, ptr %7, align 4, !tbaa !10
  %111 = zext i32 %110 to i64
  %112 = getelementptr inbounds nuw i64, ptr %109, i64 %111
  store i64 %108, ptr %112, align 8, !tbaa !23
  br label %113

113:                                              ; preds = %70
  %114 = load i32, ptr %7, align 4, !tbaa !10
  %115 = add i32 %114, 1
  store i32 %115, ptr %7, align 4, !tbaa !10
  br label %25, !llvm.loop !56

116:                                              ; preds = %25
  br label %117

117:                                              ; preds = %116, %65
  br label %118

118:                                              ; preds = %117, %16
  %119 = load i32, ptr %8, align 4, !tbaa !10
  call void @llvm.lifetime.end.p0(i64 1, ptr %9) #7
  call void @llvm.lifetime.end.p0(i64 4, ptr %8) #7
  call void @llvm.lifetime.end.p0(i64 4, ptr %7) #7
  ret i32 %119
}