; Function Attrs: nounwind uwtable
define internal range(i32 -1, 1) i32 @H5S__point_bounds(ptr noundef readonly captures(none) %0, ptr noundef writeonly captures(none) %1, ptr noundef writeonly captures(none) %2) #0 {
  %4 = load i8, ptr @H5S_init_g, align 1, !tbaa !3, !range !7, !noundef !8
  %5 = trunc nuw i8 %4 to i1
  %6 = load i8, ptr @H5_libterm_g, align 1, !range !7
  %7 = trunc nuw i8 %6 to i1
  %8 = xor i1 %7, true
  %9 = select i1 %5, i1 true, i1 %8
  br i1 %9, label %.preheader, label %.loopexit, !prof !9

.preheader:                                       ; preds = %3
  %10 = getelementptr inbounds nuw i8, ptr %0, i64 56
  %11 = load i32, ptr %10, align 8, !tbaa !11
  %.not = icmp eq i32 %11, 0
  br i1 %.not, label %.loopexit, label %.lr.ph

.lr.ph:                                           ; preds = %.preheader
  %12 = getelementptr inbounds nuw i8, ptr %0, i64 360
  %13 = getelementptr inbounds nuw i8, ptr %0, i64 96
  %wide.trip.count = zext i32 %11 to i64
  br label %14

14:                                               ; preds = %.lr.ph, %26
  %indvars.iv = phi i64 [ 0, %.lr.ph ], [ %indvars.iv.next, %26 ]
  %15 = load ptr, ptr %12, align 8, !tbaa !10
  %16 = getelementptr inbounds nuw [32 x i64], ptr %15, i64 0, i64 %indvars.iv
  %17 = load i64, ptr %16, align 8, !tbaa !21
  %18 = getelementptr inbounds nuw [32 x i64], ptr %13, i64 0, i64 %indvars.iv
  %19 = load i64, ptr %18, align 8, !tbaa !21
  %20 = add nsw i64 %19, %17
  %21 = icmp slt i64 %20, 0
  br i1 %21, label %22, label %26

22:                                               ; preds = %14
  %23 = load i64, ptr @H5E_DATASPACE_g, align 8, !tbaa !21
  %24 = load i64, ptr @H5E_BADRANGE_g, align 8, !tbaa !21
  %25 = tail call i32 (ptr, ptr, i32, i64, i64, ptr, ...) @H5E_printf_stack(ptr noundef nonnull @.str, ptr noundef nonnull @__func__.H5S__point_bounds, i32 noundef 1710, i64 noundef %23, i64 noundef %24, ptr noundef nonnull @.str.47) #15
  br label %.loopexit

26:                                               ; preds = %14
  %27 = getelementptr inbounds nuw i64, ptr %1, i64 %indvars.iv
  store i64 %20, ptr %27, align 8, !tbaa !21
  %28 = load ptr, ptr %12, align 8, !tbaa !10
  %29 = getelementptr inbounds nuw i8, ptr %28, i64 256
  %30 = getelementptr inbounds nuw [32 x i64], ptr %29, i64 0, i64 %indvars.iv
  %31 = load i64, ptr %30, align 8, !tbaa !21
  %32 = load i64, ptr %18, align 8, !tbaa !21
  %33 = add nsw i64 %32, %31
  %34 = getelementptr inbounds nuw i64, ptr %2, i64 %indvars.iv
  store i64 %33, ptr %34, align 8, !tbaa !21
  %indvars.iv.next = add nuw nsw i64 %indvars.iv, 1
  %exitcond.not = icmp eq i64 %indvars.iv.next, %wide.trip.count
  br i1 %exitcond.not, label %.loopexit, label %14, !llvm.loop !52

.loopexit:                                        ; preds = %26, %.preheader, %22, %3
  %.0 = phi i32 [ -1, %22 ], [ 0, %3 ], [ 0, %.preheader ], [ 0, %26 ]
  ret i32 %.0
}